target datalayout = "e-m:e-p270:32:32-p271:32:32-p272:64:64-i64:64-i128:128-f80:128-n8:16:32:64-S128"
target triple = "x86_64-pc-linux-gnu"

%struct.redisServer = type { i32, i64, ptr, ptr, ptr, i32, i32, i32, i32, i32, ptr, ptr, ptr, ptr, ptr, i32, i32, i32, i32, i64, i32, i32, i32, i32, ptr, i32, i32, [41 x i8], i32, i64, i32, i32, i32, ptr, ptr, i32, i32, i64, ptr, ptr, ptr, ptr, [2 x i32], i32, i32, i32, i32, i32, i32, [16 x ptr], i32, ptr, ptr, i32, [8 x %struct.connListener], i32, %struct.connListener, ptr, ptr, ptr, ptr, ptr, ptr, ptr, ptr, ptr, ptr, i32, ptr, i32, ptr, [3 x %struct.pause_event], [256 x i8], ptr, i64, i32, i32, [128 x i32], i32, i32, i64, i32, i32, i32, i32, i32, i64, i64, i64, i64, i64, i64, i64, i64, i64, i64, double, i64, i64, i64, i64, i64, i64, i64, i64, i64, i64, i64, i64, i64, i64, i64, i64, i64, i64, i64, i64, i64, double, i64, i64, i64, i64, i64, ptr, i64, i64, i64, %struct.malloc_stats, i64, i64, i64, i64, i64, i64, i64, i64, i64, i64, i64, i64, double, [4 x i64], i64, i64, i64, i64, [128 x i64], [128 x i64], i64, i64, [7 x %struct.anon], i64, i64, i64, i64, i64, i64, [4 x %struct.durationStats], i32, i32, i32, i32, i32, i32, i32, i32, i32, i32, i32, i32, i64, i32, i32, i32, i32, i64, i64, i32, i32, i32, i32, i32, ptr, [3 x %struct.clientBufferLimitsConfig], i32, i32, i32, ptr, i32, i32, i32, i32, i32, i32, ptr, ptr, i32, i32, i64, i64, i64, i64, i64, i32, i32, ptr, i32, i32, i64, i64, i64, i64, i64, i32, i32, i64, i32, i32, i32, i32, i32, i32, i32, i32, ptr, i32, i64, i64, i64, i64, i32, ptr, i32, ptr, i32, i32, i32, i64, i64, i64, i64, i32, i32, i32, i32, i32, i32, ptr, i32, i32, ptr, i32, i32, i32, [2 x i32], i32, %struct.redisOpArray, i32, ptr, i32, ptr, i32, i32, i32, i32, i32, i32, i32, [41 x i8], [41 x i8], i64, i64, i64, i64, i32, i32, ptr, i64, i64, %struct.replDataBuf, i64, i64, i32, i32, i32, i32, i32, i32, i32, i32, i32, i64, ptr, i64, ptr, ptr, ptr, i32, i32, ptr, ptr, i32, i32, i32, i64, i64, i64, i64, ptr, ptr, i32, ptr, i64, i32, i32, i32, i64, i32, i32, i32, i32, ptr, i32, i32, [41 x i8], i64, i32, ptr, i32, i32, i64, i64, i32, i32, i32, i32, i32, i64, [3 x i32], i32, i32, i32, [10 x i32], ptr, ptr, i32, i64, ptr, ptr, i32, i32, i32, i32, i64, i64, i64, i64, i64, i64, i64, i64, i64, i64, i32, i32, i64, i64, i32, i64, i64, i64, i64, i64, ptr, ptr, i32, ptr, i32, i32, i32, i32, i64, i64, ptr, ptr, i32, i32, i32, i32, i32, ptr, ptr, ptr, i32, i32, i32, i32, i32, i32, i32, i64, i32, i32, i64, i32, i32, i32, i32, i32, i32, i32, i64, ptr, ptr, i64, ptr, i32, %struct.aclInfo, i32, i64, i32, i32, i32, %struct.redisTLSContextConfig, ptr, ptr, ptr, ptr, ptr, i64, i32, ptr, i32, i32, i32, i64, i32, ptr }
%struct.connListener = type { [16 x i32], i32, ptr, i32, i32, ptr, ptr }
%struct.pause_event = type { i32, i64 }
%struct.malloc_stats = type { i64, i64, i64, i64, i64, i64, i64, i64, i64, i64, i64 }
%struct.anon = type { i64, i64, [16 x i64], i32 }
%struct.durationStats = type { i64, i64, i64 }
%struct.clientBufferLimitsConfig = type { i64, i64, i64 }
%struct.redisOpArray = type { ptr, i32, i32 }
%struct.replDataBuf = type { ptr, i64, i64, i64, i64 }
%struct.aclInfo = type { i64, i64, i64, i64 }
%struct.redisTLSContextConfig = type { ptr, ptr, ptr, ptr, ptr, ptr, ptr, ptr, ptr, ptr, ptr, ptr, i32, i32, i32, i32 }
%struct.client = type { i64, i64, ptr, i8, i8, i8, i8, i32, ptr, ptr, ptr, ptr, ptr, i64, i64, i32, ptr, i32, i32, ptr, i64, ptr, ptr, ptr, ptr, ptr, i32, i32, i64, ptr, i64, ptr, i64, i64, i64, i32, ptr, i64, i64, i32, i32, i32, i32, i64, i64, ptr, i64, i64, i64, i64, i64, i64, i64, i64, [41 x i8], i32, ptr, i32, i32, i64, %struct.multiState, %struct.blockingState, i64, ptr, ptr, ptr, ptr, ptr, ptr, ptr, ptr, ptr, ptr, ptr, ptr, ptr, ptr, i64, ptr, i64, i32, ptr, ptr, ptr, i64, %struct.listNode, i64, i64, i32, i64, ptr }
%struct.multiState = type { ptr, i32, i32, i32, i64, i32 }
%struct.blockingState = type { i32, i64, i32, ptr, i32, i32, i64, ptr, ptr, i64 }
%struct.listNode = type { ptr, ptr, ptr }
%struct.listIter = type { ptr, i32 }
%struct.clientMemUsageBucket = type { ptr, i64 }

@server = external global %struct.redisServer, align 8
@.str.244 = private unnamed_addr constant [20 x i8] c"Evicting client: %s\00", align 1
@.str.245 = private unnamed_addr constant [59 x i8] c"Over client maxmemory after evicting all evictable clients\00", align 1

; Function Attrs: nounwind uwtable
define dso_local i64 @getClientEvictionLimit() #0 {
  %1 = alloca i64, align 8
  %2 = alloca i64, align 8
  %3 = alloca i64, align 8
  %4 = alloca i32, align 4
  call void @llvm.lifetime.start.p0(i64 8, ptr %2) #16
  store i64 -1, ptr %2, align 8, !tbaa !20
  %5 = load i64, ptr getelementptr inbounds nuw (%struct.redisServer, ptr @server, i32 0, i32 332), align 8, !tbaa !323
  %6 = icmp slt i64 %5, 0
  br i1 %6, label %7, label %24

7:                                                ; preds = %0
  %8 = load i64, ptr getelementptr inbounds nuw (%struct.redisServer, ptr @server, i32 0, i32 331), align 8, !tbaa !254
  %9 = icmp ugt i64 %8, 0
  br i1 %9, label %10, label %24

10:                                               ; preds = %7
  call void @llvm.lifetime.start.p0(i64 8, ptr %3) #16
  %11 = load i64, ptr getelementptr inbounds nuw (%struct.redisServer, ptr @server, i32 0, i32 331), align 8, !tbaa !254
  %12 = uitofp i64 %11 to double
  %13 = load i64, ptr getelementptr inbounds nuw (%struct.redisServer, ptr @server, i32 0, i32 332), align 8, !tbaa !323
  %14 = sitofp i64 %13 to double
  %15 = fneg double %14
  %16 = fmul double %12, %15
  %17 = fdiv double %16, 1.000000e+02
  %18 = fptoui double %17 to i64
  store i64 %18, ptr %3, align 8, !tbaa !155
  %19 = load i64, ptr %3, align 8, !tbaa !155
  %20 = icmp ule i64 %19, -1
  br i1 %20, label %21, label %23

21:                                               ; preds = %10
  %22 = load i64, ptr %3, align 8, !tbaa !155
  store i64 %22, ptr %2, align 8, !tbaa !20
  br label %23

23:                                               ; preds = %21, %10
  call void @llvm.lifetime.end.p0(i64 8, ptr %3) #16
  br label %31

24:                                               ; preds = %7, %0
  %25 = load i64, ptr getelementptr inbounds nuw (%struct.redisServer, ptr @server, i32 0, i32 332), align 8, !tbaa !323
  %26 = icmp sgt i64 %25, 0
  br i1 %26, label %27, label %29

27:                                               ; preds = %24
  %28 = load i64, ptr getelementptr inbounds nuw (%struct.redisServer, ptr @server, i32 0, i32 332), align 8, !tbaa !323
  store i64 %28, ptr %2, align 8, !tbaa !20
  br label %30

29:                                               ; preds = %24
  store i64 0, ptr %1, align 8
  store i32 1, ptr %4, align 4
  br label %37

30:                                               ; preds = %27
  br label %31

31:                                               ; preds = %30, %23
  %32 = load i64, ptr %2, align 8, !tbaa !20
  %33 = icmp ult i64 %32, 131072
  br i1 %33, label %34, label %35

34:                                               ; preds = %31
  store i64 131072, ptr %2, align 8, !tbaa !20
  br label %35

35:                                               ; preds = %34, %31
  %36 = load i64, ptr %2, align 8, !tbaa !20
  store i64 %36, ptr %1, align 8
  store i32 1, ptr %4, align 4
  br label %37

37:                                               ; preds = %35, %29
  call void @llvm.lifetime.end.p0(i64 8, ptr %2) #16
  %38 = load i64, ptr %1, align 8
  ret i64 %38
}

; Function Attrs: nounwind uwtable
define dso_local void @evictClients() #0 {
  %1 = alloca i32, align 4
  %2 = alloca %struct.listIter, align 8
  %3 = alloca i64, align 8
  %4 = alloca i32, align 4
  %5 = alloca ptr, align 8
  %6 = alloca ptr, align 8
  %7 = alloca i64, align 8
  %8 = alloca i32, align 4
  %9 = alloca ptr, align 8
  %10 = load ptr, ptr getelementptr inbounds nuw (%struct.redisServer, ptr @server, i32 0, i32 65), align 8, !tbaa !324
  %11 = icmp ne ptr %10, null
  br i1 %11, label %13, label %12

12:                                               ; preds = %0
  br label %122

13:                                               ; preds = %0
  call void @llvm.lifetime.start.p0(i64 4, ptr %1) #16
  store i32 18, ptr %1, align 4, !tbaa !19
  call void @llvm.lifetime.start.p0(i64 16, ptr %2) #16
  %14 = load ptr, ptr getelementptr inbounds nuw (%struct.redisServer, ptr @server, i32 0, i32 65), align 8, !tbaa !324
  %15 = load i32, ptr %1, align 4, !tbaa !19
  %16 = sext i32 %15 to i64
  %17 = getelementptr inbounds %struct.clientMemUsageBucket, ptr %14, i64 %16
  %18 = getelementptr inbounds nuw %struct.clientMemUsageBucket, ptr %17, i32 0, i32 0
  %19 = load ptr, ptr %18, align 8, !tbaa !241
  call void @listRewind(ptr noundef %19, ptr noundef %2)
  call void @llvm.lifetime.start.p0(i64 8, ptr %3) #16
  %20 = call i64 @getClientEvictionLimit()
  store i64 %20, ptr %3, align 8, !tbaa !20
  %21 = load i64, ptr %3, align 8, !tbaa !20
  %22 = icmp eq i64 %21, 0
  br i1 %22, label %23, label %24

23:                                               ; preds = %13
  store i32 1, ptr %4, align 4
  br label %120

24:                                               ; preds = %13
  br label %25

25:                                               ; preds = %118, %24
  %26 = load i64, ptr getelementptr inbounds nuw (%struct.redisServer, ptr @server, i32 0, i32 142), align 8, !tbaa !20
  %27 = load i64, ptr getelementptr inbounds ([4 x i64], ptr getelementptr inbounds nuw (%struct.redisServer, ptr @server, i32 0, i32 142), i64 0, i64 2), align 8, !tbaa !20
  %28 = add i64 %26, %27
  %29 = load i64, ptr %3, align 8, !tbaa !20
  %30 = icmp uge i64 %28, %29
  br i1 %30, label %31, label %119

31:                                               ; preds = %25
  call void @llvm.lifetime.start.p0(i64 8, ptr %5) #16
  %32 = call ptr @listNext(ptr noundef %2)
  store ptr %32, ptr %5, align 8, !tbaa !167
  %33 = load ptr, ptr %5, align 8, !tbaa !167
  %34 = icmp ne ptr %33, null
  br i1 %34, label %35, label %95

35:                                               ; preds = %31
  call void @llvm.lifetime.start.p0(i64 8, ptr %6) #16
  %36 = load ptr, ptr %5, align 8, !tbaa !167
  %37 = getelementptr inbounds nuw %struct.listNode, ptr %36, i32 0, i32 2
  %38 = load ptr, ptr %37, align 8, !tbaa !168
  store ptr %38, ptr %6, align 8, !tbaa !24
  call void @llvm.lifetime.start.p0(i64 8, ptr %7) #16
  %39 = load ptr, ptr %6, align 8, !tbaa !24
  %40 = getelementptr inbounds nuw %struct.client, ptr %39, i32 0, i32 79
  %41 = load i64, ptr %40, align 8, !tbaa !142
  store i64 %41, ptr %7, align 8, !tbaa !20
  call void @llvm.lifetime.start.p0(i64 4, ptr %8) #16
  %42 = load ptr, ptr %6, align 8, !tbaa !24
  %43 = getelementptr inbounds nuw %struct.client, ptr %42, i32 0, i32 4
  %44 = load i8, ptr %43, align 1, !tbaa !73
  %45 = zext i8 %44 to i32
  store i32 %45, ptr %8, align 4, !tbaa !19
  %46 = load i32, ptr %8, align 4, !tbaa !19
  %47 = icmp ne i32 %46, 0
  br i1 %47, label %48, label %52

48:                                               ; preds = %35
  %49 = load i32, ptr %8, align 4, !tbaa !19
  call void @pauseIOThread(i32 noundef %49)
  %50 = load ptr, ptr %6, align 8, !tbaa !24
  %51 = call i32 @updateClientMemUsageAndBucket(ptr noundef %50)
  br label %52

52:                                               ; preds = %48, %35
  %53 = load ptr, ptr %6, align 8, !tbaa !24
  %54 = getelementptr inbounds nuw %struct.client, ptr %53, i32 0, i32 79
  %55 = load i64, ptr %54, align 8, !tbaa !142
  %56 = load i64, ptr %7, align 8, !tbaa !20
  %57 = icmp uge i64 %55, %56
  br i1 %57, label %67, label %58

58:                                               ; preds = %52
  %59 = load ptr, ptr %6, align 8, !tbaa !24
  %60 = getelementptr inbounds nuw %struct.client, ptr %59, i32 0, i32 82
  %61 = load ptr, ptr %60, align 8, !tbaa !149
  %62 = load ptr, ptr getelementptr inbounds nuw (%struct.redisServer, ptr @server, i32 0, i32 65), align 8, !tbaa !324
  %63 = load i32, ptr %1, align 4, !tbaa !19
  %64 = sext i32 %63 to i64
  %65 = getelementptr inbounds %struct.clientMemUsageBucket, ptr %62, i64 %64
  %66 = icmp eq ptr %61, %65
  br i1 %66, label %67, label %83

67:                                               ; preds = %58, %52
  call void @llvm.lifetime.start.p0(i64 8, ptr %9) #16
  %68 = call ptr @sdsempty()
  %69 = load ptr, ptr %6, align 8, !tbaa !24
  %70 = call ptr @catClientInfoString(ptr noundef %68, ptr noundef %69)
  store ptr %70, ptr %9, align 8, !tbaa !5
  br label %71

71:                                               ; preds = %67
  %72 = load i32, ptr getelementptr inbounds nuw (%struct.redisServer, ptr @server, i32 0, i32 159), align 8, !tbaa !169
  %73 = icmp slt i32 2, %72
  br i1 %73, label %74, label %75

74:                                               ; preds = %71
  br label %78

75:                                               ; preds = %71
  %76 = load ptr, ptr %9, align 8, !tbaa !5
  call void (i32, ptr, ...) @_serverLog(i32 noundef 2, ptr noundef @.str.244, ptr noundef %76)
  br label %77

77:                                               ; preds = %75
  br label %78

78:                                               ; preds = %77, %74
  %79 = load ptr, ptr %6, align 8, !tbaa !24
  call void @freeClient(ptr noundef %79)
  %80 = load ptr, ptr %9, align 8, !tbaa !5
  call void @sdsfree(ptr noundef %80)
  %81 = load i64, ptr getelementptr inbounds nuw (%struct.redisServer, ptr @server, i32 0, i32 100), align 8, !tbaa !325
  %82 = add nsw i64 %81, 1
  store i64 %82, ptr getelementptr inbounds nuw (%struct.redisServer, ptr @server, i32 0, i32 100), align 8, !tbaa !325
  call void @llvm.lifetime.end.p0(i64 8, ptr %9) #16
  br label %83

83:                                               ; preds = %78, %58
  %84 = load i32, ptr %8, align 4, !tbaa !19
  %85 = icmp ne i32 %84, 0
  br i1 %85, label %86, label %94

86:                                               ; preds = %83
  %87 = load i32, ptr %8, align 4, !tbaa !19
  call void @resumeIOThread(i32 noundef %87)
  %88 = load ptr, ptr getelementptr inbounds nuw (%struct.redisServer, ptr @server, i32 0, i32 65), align 8, !tbaa !324
  %89 = load i32, ptr %1, align 4, !tbaa !19
  %90 = sext i32 %89 to i64
  %91 = getelementptr inbounds %struct.clientMemUsageBucket, ptr %88, i64 %90
  %92 = getelementptr inbounds nuw %struct.clientMemUsageBucket, ptr %91, i32 0, i32 0
  %93 = load ptr, ptr %92, align 8, !tbaa !241
  call void @listRewind(ptr noundef %93, ptr noundef %2)
  br label %94

94:                                               ; preds = %86, %83
  call void @llvm.lifetime.end.p0(i64 4, ptr %8) #16
  call void @llvm.lifetime.end.p0(i64 8, ptr %7) #16
  call void @llvm.lifetime.end.p0(i64 8, ptr %6) #16
  br label %115

95:                                               ; preds = %31
  %96 = load i32, ptr %1, align 4, !tbaa !19
  %97 = add nsw i32 %96, -1
  store i32 %97, ptr %1, align 4, !tbaa !19
  %98 = load i32, ptr %1, align 4, !tbaa !19
  %99 = icmp slt i32 %98, 0
  br i1 %99, label %100, label %108

100:                                              ; preds = %95
  br label %101

101:                                              ; preds = %100
  %102 = load i32, ptr getelementptr inbounds nuw (%struct.redisServer, ptr @server, i32 0, i32 159), align 8, !tbaa !169
  %103 = icmp slt i32 3, %102
  br i1 %103, label %104, label %105

104:                                              ; preds = %101
  br label %107

105:                                              ; preds = %101
  call void (i32, ptr, ...) @_serverLog(i32 noundef 3, ptr noundef @.str.245)
  br label %106

106:                                              ; preds = %105
  br label %107

107:                                              ; preds = %106, %104
  store i32 3, ptr %4, align 4
  br label %116

108:                                              ; preds = %95
  %109 = load ptr, ptr getelementptr inbounds nuw (%struct.redisServer, ptr @server, i32 0, i32 65), align 8, !tbaa !324
  %110 = load i32, ptr %1, align 4, !tbaa !19
  %111 = sext i32 %110 to i64
  %112 = getelementptr inbounds %struct.clientMemUsageBucket, ptr %109, i64 %111
  %113 = getelementptr inbounds nuw %struct.clientMemUsageBucket, ptr %112, i32 0, i32 0
  %114 = load ptr, ptr %113, align 8, !tbaa !241
  call void @listRewind(ptr noundef %114, ptr noundef %2)
  br label %115

115:                                              ; preds = %108, %94
  store i32 0, ptr %4, align 4
  br label %116

116:                                              ; preds = %115, %107
  call void @llvm.lifetime.end.p0(i64 8, ptr %5) #16
  %117 = load i32, ptr %4, align 4
  switch i32 %117, label %123 [
    i32 0, label %118
    i32 3, label %119
  ]

118:                                              ; preds = %116
  br label %25, !llvm.loop !326

119:                                              ; preds = %116, %25
  store i32 0, ptr %4, align 4
  br label %120

120:                                              ; preds = %119, %23
  call void @llvm.lifetime.end.p0(i64 8, ptr %3) #16
  call void @llvm.lifetime.end.p0(i64 16, ptr %2) #16
  call void @llvm.lifetime.end.p0(i64 4, ptr %1) #16
  %121 = load i32, ptr %4, align 4
  switch i32 %121, label %123 [
    i32 0, label %122
    i32 1, label %122
  ]

122:                                              ; preds = %12, %120, %120
  ret void

123:                                              ; preds = %120, %116
  unreachable
}