; Function Attrs: nounwind uwtable
define dso_local void @evictClients() local_unnamed_addr #0 {
  %1 = alloca %struct.listIter, align 8
  %2 = load ptr, ptr getelementptr inbounds nuw (i8, ptr @server, i64 1496), align 8, !tbaa !278
  %.not = icmp eq ptr %2, null
  br i1 %.not, label %66, label %3

3:                                                ; preds = %0
  call void @llvm.lifetime.start.p0(i64 16, ptr nonnull %1) #26
  %4 = getelementptr inbounds nuw i8, ptr %2, i64 288
  %5 = load ptr, ptr %4, align 8, !tbaa !212
  call void @listRewind(ptr noundef %5, ptr noundef nonnull %1) #26
  %6 = load i64, ptr getelementptr inbounds nuw (i8, ptr @server, i64 7528), align 8, !tbaa !277
  %7 = icmp slt i64 %6, 0
  %8 = load i64, ptr getelementptr inbounds nuw (i8, ptr @server, i64 7520), align 8
  %9 = icmp ne i64 %8, 0
  %or.cond.i = select i1 %7, i1 %9, i1 false
  br i1 %or.cond.i, label %10, label %17

10:                                               ; preds = %3
  %11 = uitofp i64 %8 to double
  %12 = sitofp i64 %6 to double
  %13 = fneg double %12
  %14 = fmul double %13, %11
  %15 = fdiv double %14, 1.000000e+02
  %16 = fptoui double %15 to i64
  br label %getClientEvictionLimit.exit

17:                                               ; preds = %3
  %18 = icmp sgt i64 %6, 0
  br i1 %18, label %getClientEvictionLimit.exit, label %getClientEvictionLimit.exit.thread

getClientEvictionLimit.exit:                      ; preds = %10, %17
  %.1.i = phi i64 [ %16, %10 ], [ %6, %17 ]
  %spec.store.select.i = call i64 @llvm.umax.i64(i64 %.1.i, i64 131072)
  %19 = load i64, ptr getelementptr inbounds nuw (i8, ptr @server, i64 2952), align 8, !tbaa !16
  %20 = load i64, ptr getelementptr inbounds nuw (i8, ptr @server, i64 2968), align 8, !tbaa !16
  %21 = add i64 %20, %19
  %.not3038 = icmp ult i64 %21, %spec.store.select.i
  br i1 %.not3038, label %getClientEvictionLimit.exit.thread, label %.lr.ph

.lr.ph:                                           ; preds = %getClientEvictionLimit.exit, %62
  %.039 = phi i32 [ %.2, %62 ], [ 18, %getClientEvictionLimit.exit ]
  %22 = call ptr @listNext(ptr noundef nonnull %1) #26
  %.not31 = icmp eq ptr %22, null
  br i1 %.not31, label %51, label %23

23:                                               ; preds = %.lr.ph
  %24 = getelementptr inbounds nuw i8, ptr %22, i64 16
  %25 = load ptr, ptr %24, align 8, !tbaa !123
  %26 = getelementptr inbounds nuw i8, ptr %25, i64 25
  %27 = load i8, ptr %26, align 1, !tbaa !73
  %28 = zext i8 %27 to i32
  %.not32 = icmp eq i8 %27, 0
  br i1 %.not32, label %.thread, label %29

29:                                               ; preds = %23
  %30 = getelementptr inbounds nuw i8, ptr %25, i64 688
  %31 = load i64, ptr %30, align 8, !tbaa !201
  call void @pauseIOThread(i32 noundef %28) #26
  %32 = call i32 @updateClientMemUsageAndBucket(ptr noundef nonnull %25) #26
  %.pre = load i64, ptr %30, align 8, !tbaa !201
  %.not33 = icmp ult i64 %.pre, %31
  br i1 %.not33, label %33, label %.thread

33:                                               ; preds = %29
  %34 = getelementptr inbounds nuw i8, ptr %25, i64 712
  %35 = load ptr, ptr %34, align 8, !tbaa !209
  %36 = load ptr, ptr getelementptr inbounds nuw (i8, ptr @server, i64 1496), align 8, !tbaa !278
  %37 = sext i32 %.039 to i64
  %38 = getelementptr inbounds %struct.clientMemUsageBucket, ptr %36, i64 %37
  %39 = icmp eq ptr %35, %38
  br i1 %39, label %.thread, label %.thread41

.thread:                                          ; preds = %23, %33, %29
  %40 = call ptr @sdsempty() #26
  %41 = call ptr @catClientInfoString(ptr noundef %40, ptr noundef nonnull %25)
  %42 = load i32, ptr getelementptr inbounds nuw (i8, ptr @server, i64 6288), align 8, !tbaa !125
  %43 = icmp sgt i32 %42, 2
  br i1 %43, label %45, label %44

44:                                               ; preds = %.thread
  call void (i32, ptr, ...) @_serverLog(i32 noundef 2, ptr noundef nonnull @.str.244, ptr noundef %41) #26
  br label %45

45:                                               ; preds = %44, %.thread
  call void @freeClient(ptr noundef nonnull %25)
  call void @sdsfree(ptr noundef %41) #26
  %46 = load i64, ptr getelementptr inbounds nuw (i8, ptr @server, i64 2536), align 8, !tbaa !279
  %47 = add nsw i64 %46, 1
  store i64 %47, ptr getelementptr inbounds nuw (i8, ptr @server, i64 2536), align 8, !tbaa !279
  br i1 %.not32, label %62, label %.thread41

.thread41:                                        ; preds = %33, %45
  call void @resumeIOThread(i32 noundef %28) #26
  %48 = load ptr, ptr getelementptr inbounds nuw (i8, ptr @server, i64 1496), align 8, !tbaa !278
  %49 = sext i32 %.039 to i64
  %50 = getelementptr inbounds %struct.clientMemUsageBucket, ptr %48, i64 %49
  br label %.sink.split

51:                                               ; preds = %.lr.ph
  %52 = icmp slt i32 %.039, 1
  br i1 %52, label %53, label %57

53:                                               ; preds = %51
  %54 = load i32, ptr getelementptr inbounds nuw (i8, ptr @server, i64 6288), align 8, !tbaa !125
  %55 = icmp sgt i32 %54, 3
  br i1 %55, label %getClientEvictionLimit.exit.thread, label %56

56:                                               ; preds = %53
  call void (i32, ptr, ...) @_serverLog(i32 noundef 3, ptr noundef nonnull @.str.245) #26
  br label %getClientEvictionLimit.exit.thread

57:                                               ; preds = %51
  %58 = add nsw i32 %.039, -1
  %59 = load ptr, ptr getelementptr inbounds nuw (i8, ptr @server, i64 1496), align 8, !tbaa !278
  %60 = zext nneg i32 %58 to i64
  %61 = getelementptr inbounds nuw %struct.clientMemUsageBucket, ptr %59, i64 %60
  br label %.sink.split

.sink.split:                                      ; preds = %.thread41, %57
  %.sink.in = phi ptr [ %61, %57 ], [ %50, %.thread41 ]
  %.2.ph = phi i32 [ %58, %57 ], [ %.039, %.thread41 ]
  %.sink = load ptr, ptr %.sink.in, align 8, !tbaa !212
  call void @listRewind(ptr noundef %.sink, ptr noundef nonnull %1) #26
  br label %62

62:                                               ; preds = %.sink.split, %45
  %.2 = phi i32 [ %.039, %45 ], [ %.2.ph, %.sink.split ]
  %63 = load i64, ptr getelementptr inbounds nuw (i8, ptr @server, i64 2952), align 8, !tbaa !16
  %64 = load i64, ptr getelementptr inbounds nuw (i8, ptr @server, i64 2968), align 8, !tbaa !16
  %65 = add i64 %64, %63
  %.not30 = icmp ult i64 %65, %spec.store.select.i
  br i1 %.not30, label %getClientEvictionLimit.exit.thread, label %.lr.ph

getClientEvictionLimit.exit.thread:               ; preds = %62, %getClientEvictionLimit.exit, %56, %53, %17
  call void @llvm.lifetime.end.p0(i64 16, ptr nonnull %1) #26
  br label %66

66:                                               ; preds = %0, %getClientEvictionLimit.exit.thread
  ret void
}